target datalayout = "e-m:e-p270:32:32-p271:32:32-p272:64:64-i64:64-i128:128-f80:128-n8:16:32:64-S128"
target triple = "x86_64-pc-linux-gnu"

%struct.pmix_list_t = type { %struct.pmix_object_t, %struct.pmix_list_item_t, i64 }
%struct.pmix_object_t = type { %union.pthread_mutex_t, ptr, i32, %struct.pmix_tma }
%union.pthread_mutex_t = type { %struct.__pthread_mutex_s }
%struct.__pthread_mutex_s = type { i32, i32, i32, i32, i32, i16, i16, %struct.__pthread_internal_list }
%struct.__pthread_internal_list = type { ptr, ptr }
%struct.pmix_tma = type { ptr, ptr, ptr, ptr, ptr, ptr, ptr, ptr }
%struct.pmix_list_item_t = type { %struct.pmix_object_t, ptr, ptr, i32 }
%struct.event = type { %struct.event_callback, %union.anon.0, i32, ptr, %union.anon.2, i16, i16, %struct.timeval }
%struct.event_callback = type { %struct.anon, i16, i8, i8, %union.anon, ptr }
%struct.anon = type { ptr, ptr }
%union.anon = type { ptr }
%union.anon.0 = type { %struct.anon.1 }
%struct.anon.1 = type { ptr, ptr }
%union.anon.2 = type { %struct.anon.3 }
%struct.anon.3 = type { %struct.anon.4, %struct.timeval }
%struct.anon.4 = type { ptr, ptr }
%struct.timeval = type { i64, i64 }
%struct.pmix_peer_t = type { %struct.pmix_object_t, ptr, ptr, %struct.pmix_proc_type_t, i16, i32, i32, i32, i8, %struct.event, i8, %struct.event, i8, %struct.pmix_list_t, ptr, ptr, i32, %struct.pmix_epilog_t }
%struct.pmix_proc_type_t = type { i32, i8, i8, i8, i8 }
%struct.pmix_epilog_t = type { i32, i32, %struct.pmix_list_t, %struct.pmix_list_t, %struct.pmix_list_t }

; Function Attrs: nounwind uwtable
define zeroext i1 @pmix_ptl_base_peer_is_earlier(ptr noundef %0, i8 noundef zeroext %1, i8 noundef zeroext %2, i8 noundef zeroext %3) #0 {
  %5 = alloca i1, align 1
  %6 = alloca ptr, align 8
  %7 = alloca i8, align 1
  %8 = alloca i8, align 1
  %9 = alloca i8, align 1
  store ptr %0, ptr %6, align 8, !tbaa !3
  store i8 %1, ptr %7, align 1, !tbaa !8
  store i8 %2, ptr %8, align 1, !tbaa !8
  store i8 %3, ptr %9, align 1, !tbaa !8
  %10 = load i8, ptr %7, align 1, !tbaa !8
  %11 = zext i8 %10 to i32
  %12 = icmp ne i32 255, %11
  br i1 %12, label %13, label %42

13:                                               ; preds = %4
  %14 = load ptr, ptr %6, align 8, !tbaa !3
  %15 = getelementptr inbounds nuw %struct.pmix_peer_t, ptr %14, i32 0, i32 3
  %16 = getelementptr inbounds nuw %struct.pmix_proc_type_t, ptr %15, i32 0, i32 1
  %17 = load i8, ptr %16, align 4, !tbaa !9
  %18 = zext i8 %17 to i32
  %19 = icmp eq i32 %18, 255
  br i1 %19, label %20, label %21

20:                                               ; preds = %13
  store i1 true, ptr %5, align 1
  br label %109

21:                                               ; preds = %13
  %22 = load ptr, ptr %6, align 8, !tbaa !3
  %23 = getelementptr inbounds nuw %struct.pmix_peer_t, ptr %22, i32 0, i32 3
  %24 = getelementptr inbounds nuw %struct.pmix_proc_type_t, ptr %23, i32 0, i32 1
  %25 = load i8, ptr %24, align 4, !tbaa !9
  %26 = zext i8 %25 to i32
  %27 = load i8, ptr %7, align 1, !tbaa !8
  %28 = zext i8 %27 to i32
  %29 = icmp sgt i32 %26, %28
  br i1 %29, label %30, label %31

30:                                               ; preds = %21
  store i1 false, ptr %5, align 1
  br label %109

31:                                               ; preds = %21
  %32 = load ptr, ptr %6, align 8, !tbaa !3
  %33 = getelementptr inbounds nuw %struct.pmix_peer_t, ptr %32, i32 0, i32 3
  %34 = getelementptr inbounds nuw %struct.pmix_proc_type_t, ptr %33, i32 0, i32 1
  %35 = load i8, ptr %34, align 4, !tbaa !9
  %36 = zext i8 %35 to i32
  %37 = load i8, ptr %7, align 1, !tbaa !8
  %38 = zext i8 %37 to i32
  %39 = icmp slt i32 %36, %38
  br i1 %39, label %40, label %41

40:                                               ; preds = %31
  store i1 true, ptr %5, align 1
  br label %109

41:                                               ; preds = %31
  br label %42

42:                                               ; preds = %41, %4
  %43 = load i8, ptr %8, align 1, !tbaa !8
  %44 = zext i8 %43 to i32
  %45 = icmp ne i32 255, %44
  br i1 %45, label %46, label %75

46:                                               ; preds = %42
  %47 = load ptr, ptr %6, align 8, !tbaa !3
  %48 = getelementptr inbounds nuw %struct.pmix_peer_t, ptr %47, i32 0, i32 3
  %49 = getelementptr inbounds nuw %struct.pmix_proc_type_t, ptr %48, i32 0, i32 2
  %50 = load i8, ptr %49, align 1, !tbaa !31
  %51 = zext i8 %50 to i32
  %52 = icmp eq i32 %51, 255
  br i1 %52, label %53, label %54

53:                                               ; preds = %46
  store i1 true, ptr %5, align 1
  br label %109

54:                                               ; preds = %46
  %55 = load ptr, ptr %6, align 8, !tbaa !3
  %56 = getelementptr inbounds nuw %struct.pmix_peer_t, ptr %55, i32 0, i32 3
  %57 = getelementptr inbounds nuw %struct.pmix_proc_type_t, ptr %56, i32 0, i32 2
  %58 = load i8, ptr %57, align 1, !tbaa !31
  %59 = zext i8 %58 to i32
  %60 = load i8, ptr %8, align 1, !tbaa !8
  %61 = zext i8 %60 to i32
  %62 = icmp sgt i32 %59, %61
  br i1 %62, label %63, label %64

63:                                               ; preds = %54
  store i1 false, ptr %5, align 1
  br label %109

64:                                               ; preds = %54
  %65 = load ptr, ptr %6, align 8, !tbaa !3
  %66 = getelementptr inbounds nuw %struct.pmix_peer_t, ptr %65, i32 0, i32 3
  %67 = getelementptr inbounds nuw %struct.pmix_proc_type_t, ptr %66, i32 0, i32 2
  %68 = load i8, ptr %67, align 1, !tbaa !31
  %69 = zext i8 %68 to i32
  %70 = load i8, ptr %8, align 1, !tbaa !8
  %71 = zext i8 %70 to i32
  %72 = icmp slt i32 %69, %71
  br i1 %72, label %73, label %74

73:                                               ; preds = %64
  store i1 true, ptr %5, align 1
  br label %109

74:                                               ; preds = %64
  br label %75

75:                                               ; preds = %74, %42
  %76 = load i8, ptr %9, align 1, !tbaa !8
  %77 = zext i8 %76 to i32
  %78 = icmp ne i32 255, %77
  br i1 %78, label %79, label %108

79:                                               ; preds = %75
  %80 = load ptr, ptr %6, align 8, !tbaa !3
  %81 = getelementptr inbounds nuw %struct.pmix_peer_t, ptr %80, i32 0, i32 3
  %82 = getelementptr inbounds nuw %struct.pmix_proc_type_t, ptr %81, i32 0, i32 3
  %83 = load i8, ptr %82, align 2, !tbaa !32
  %84 = zext i8 %83 to i32
  %85 = icmp eq i32 %84, 255
  br i1 %85, label %86, label %87

86:                                               ; preds = %79
  store i1 true, ptr %5, align 1
  br label %109

87:                                               ; preds = %79
  %88 = load ptr, ptr %6, align 8, !tbaa !3
  %89 = getelementptr inbounds nuw %struct.pmix_peer_t, ptr %88, i32 0, i32 3
  %90 = getelementptr inbounds nuw %struct.pmix_proc_type_t, ptr %89, i32 0, i32 3
  %91 = load i8, ptr %90, align 2, !tbaa !32
  %92 = zext i8 %91 to i32
  %93 = load i8, ptr %9, align 1, !tbaa !8
  %94 = zext i8 %93 to i32
  %95 = icmp sgt i32 %92, %94
  br i1 %95, label %96, label %97

96:                                               ; preds = %87
  store i1 false, ptr %5, align 1
  br label %109

97:                                               ; preds = %87
  %98 = load ptr, ptr %6, align 8, !tbaa !3
  %99 = getelementptr inbounds nuw %struct.pmix_peer_t, ptr %98, i32 0, i32 3
  %100 = getelementptr inbounds nuw %struct.pmix_proc_type_t, ptr %99, i32 0, i32 3
  %101 = load i8, ptr %100, align 2, !tbaa !32
  %102 = zext i8 %101 to i32
  %103 = load i8, ptr %9, align 1, !tbaa !8
  %104 = zext i8 %103 to i32
  %105 = icmp slt i32 %102, %104
  br i1 %105, label %106, label %107

106:                                              ; preds = %97
  store i1 true, ptr %5, align 1
  br label %109

107:                                              ; preds = %97
  br label %108

108:                                              ; preds = %107, %75
  store i1 false, ptr %5, align 1
  br label %109

109:                                              ; preds = %108, %106, %96, %86, %73, %63, %53, %40, %30, %20
  %110 = load i1, ptr %5, align 1
  ret i1 %110
}