; Function Attrs: mustprogress nofree norecurse nosync nounwind willreturn memory(argmem: read) uwtable
define noundef zeroext i1 @pmix_ptl_base_peer_is_earlier(ptr noundef readonly captures(none) %0, i8 noundef zeroext %1, i8 noundef zeroext %2, i8 noundef zeroext %3) local_unnamed_addr #0 {
  %.not = icmp eq i8 %1, -1
  br i1 %.not, label %13, label %5

5:                                                ; preds = %4
  %6 = getelementptr inbounds nuw i8, ptr %0, i64 140
  %7 = load i8, ptr %6, align 4, !tbaa !3
  %8 = icmp eq i8 %7, -1
  br i1 %8, label %32, label %9

9:                                                ; preds = %5
  %10 = icmp ugt i8 %7, %1
  br i1 %10, label %32, label %11

11:                                               ; preds = %9
  %12 = icmp ult i8 %7, %1
  br i1 %12, label %32, label %13

13:                                               ; preds = %11, %4
  %.not24 = icmp eq i8 %2, -1
  br i1 %.not24, label %22, label %14

14:                                               ; preds = %13
  %15 = getelementptr inbounds nuw i8, ptr %0, i64 141
  %16 = load i8, ptr %15, align 1, !tbaa !28
  %17 = icmp eq i8 %16, -1
  br i1 %17, label %32, label %18

18:                                               ; preds = %14
  %19 = icmp ugt i8 %16, %2
  br i1 %19, label %32, label %20

20:                                               ; preds = %18
  %21 = icmp ult i8 %16, %2
  br i1 %21, label %32, label %22

22:                                               ; preds = %20, %13
  %.not25 = icmp eq i8 %3, -1
  br i1 %.not25, label %31, label %23

23:                                               ; preds = %22
  %24 = getelementptr inbounds nuw i8, ptr %0, i64 142
  %25 = load i8, ptr %24, align 2, !tbaa !29
  %26 = icmp eq i8 %25, -1
  br i1 %26, label %32, label %27

27:                                               ; preds = %23
  %28 = icmp ugt i8 %25, %3
  br i1 %28, label %32, label %29

29:                                               ; preds = %27
  %30 = icmp ult i8 %25, %3
  br i1 %30, label %32, label %31

31:                                               ; preds = %29, %22
  br label %32

32:                                               ; preds = %29, %27, %23, %20, %18, %14, %11, %9, %5, %31
  %.0 = phi i1 [ false, %31 ], [ true, %5 ], [ false, %9 ], [ true, %11 ], [ true, %14 ], [ false, %18 ], [ true, %20 ], [ true, %23 ], [ false, %27 ], [ true, %29 ]
  ret i1 %.0
}